target datalayout = "e-m:e-p270:32:32-p271:32:32-p272:64:64-i64:64-i128:128-f80:128-n8:16:32:64-S128"
target triple = "x86_64-pc-linux-gnu"

; Function Attrs: mustprogress nounwind uwtable
define linkonce_odr hidden noundef i32 @_ZN2cv6cv_absEa(i8 noundef signext %0) #1 comdat {
  %2 = alloca i8, align 1
  store i8 %0, ptr %2, align 1
  %3 = load i8, ptr %2, align 1
  %4 = sext i8 %3 to i32
  %5 = call i32 @llvm.abs.i32(i32 %4, i1 true)
  ret i32 %5
}

; Function Attrs: mustprogress nounwind uwtable
define internal noundef i32 @_ZN2cvL6normL1IaiEET0_PKT_i(ptr noundef %0, i32 noundef %1) #1 {
  %3 = alloca ptr, align 8
  %4 = alloca i32, align 4
  %5 = alloca i32, align 4
  %6 = alloca i32, align 4
  store ptr %0, ptr %3, align 8
  store i32 %1, ptr %4, align 4
  store i32 0, ptr %5, align 4
  store i32 0, ptr %6, align 4
  br label %7

7:                                                ; preds = %20, %2
  %8 = load i32, ptr %6, align 4
  %9 = load i32, ptr %4, align 4
  %10 = icmp slt i32 %8, %9
  br i1 %10, label %11, label %23

11:                                               ; preds = %7
  %12 = load ptr, ptr %3, align 8
  %13 = load i32, ptr %6, align 4
  %14 = sext i32 %13 to i64
  %15 = getelementptr inbounds i8, ptr %12, i64 %14
  %16 = load i8, ptr %15, align 1
  %17 = call noundef i32 @_ZN2cv6cv_absEa(i8 noundef signext %16)
  %18 = load i32, ptr %5, align 4
  %19 = add nsw i32 %18, %17
  store i32 %19, ptr %5, align 4
  br label %20

20:                                               ; preds = %11
  %21 = load i32, ptr %6, align 4
  %22 = add nsw i32 %21, 1
  store i32 %22, ptr %6, align 4
  br label %7, !llvm.loop !54

23:                                               ; preds = %7
  %24 = load i32, ptr %5, align 4
  ret i32 %24
}

; Function Attrs: mustprogress uwtable
define linkonce_odr hidden noundef i32 @_ZN2cv7normL1_IaiEEiPKT_PKhPT0_ii(ptr noundef %0, ptr noundef %1, ptr noundef %2, i32 noundef %3, i32 noundef %4) #0 comdat {
  %6 = alloca ptr, align 8
  %7 = alloca ptr, align 8
  %8 = alloca ptr, align 8
  %9 = alloca i32, align 4
  %10 = alloca i32, align 4
  %11 = alloca i32, align 4
  %12 = alloca i32, align 4
  %13 = alloca i32, align 4
  store ptr %0, ptr %6, align 8
  store ptr %1, ptr %7, align 8
  store ptr %2, ptr %8, align 8
  store i32 %3, ptr %9, align 4
  store i32 %4, ptr %10, align 4
  %14 = load ptr, ptr %8, align 8
  %15 = load i32, ptr %14, align 4
  store i32 %15, ptr %11, align 4
  %16 = load ptr, ptr %7, align 8
  %17 = icmp ne ptr %16, null
  br i1 %17, label %26, label %18

18:                                               ; preds = %5
  %19 = load ptr, ptr %6, align 8
  %20 = load i32, ptr %9, align 4
  %21 = load i32, ptr %10, align 4
  %22 = mul nsw i32 %20, %21
  %23 = call noundef i32 @_ZN2cvL6normL1IaiEET0_PKT_i(ptr noundef %19, i32 noundef %22)
  %24 = load i32, ptr %11, align 4
  %25 = add nsw i32 %24, %23
  store i32 %25, ptr %11, align 4
  br label %65

26:                                               ; preds = %5
  store i32 0, ptr %12, align 4
  br label %27

27:                                               ; preds = %57, %26
  %28 = load i32, ptr %12, align 4
  %29 = load i32, ptr %9, align 4
  %30 = icmp slt i32 %28, %29
  br i1 %30, label %31, label %64

31:                                               ; preds = %27
  %32 = load ptr, ptr %7, align 8
  %33 = load i32, ptr %12, align 4
  %34 = sext i32 %33 to i64
  %35 = getelementptr inbounds i8, ptr %32, i64 %34
  %36 = load i8, ptr %35, align 1
  %37 = icmp ne i8 %36, 0
  br i1 %37, label %38, label %56

38:                                               ; preds = %31
  store i32 0, ptr %13, align 4
  br label %39

39:                                               ; preds = %52, %38
  %40 = load i32, ptr %13, align 4
  %41 = load i32, ptr %10, align 4
  %42 = icmp slt i32 %40, %41
  br i1 %42, label %43, label %55

43:                                               ; preds = %39
  %44 = load ptr, ptr %6, align 8
  %45 = load i32, ptr %13, align 4
  %46 = sext i32 %45 to i64
  %47 = getelementptr inbounds i8, ptr %44, i64 %46
  %48 = load i8, ptr %47, align 1
  %49 = call noundef i32 @_ZN2cv6cv_absEa(i8 noundef signext %48)
  %50 = load i32, ptr %11, align 4
  %51 = add nsw i32 %50, %49
  store i32 %51, ptr %11, align 4
  br label %52

52:                                               ; preds = %43
  %53 = load i32, ptr %13, align 4
  %54 = add nsw i32 %53, 1
  store i32 %54, ptr %13, align 4
  br label %39, !llvm.loop !52

55:                                               ; preds = %39
  br label %56

56:                                               ; preds = %55, %31
  br label %57

57:                                               ; preds = %56
  %58 = load i32, ptr %12, align 4
  %59 = add nsw i32 %58, 1
  store i32 %59, ptr %12, align 4
  %60 = load i32, ptr %10, align 4
  %61 = load ptr, ptr %6, align 8
  %62 = sext i32 %60 to i64
  %63 = getelementptr inbounds i8, ptr %61, i64 %62
  store ptr %63, ptr %6, align 8
  br label %27, !llvm.loop !53

64:                                               ; preds = %27
  br label %65

65:                                               ; preds = %64, %18
  %66 = load i32, ptr %11, align 4
  %67 = load ptr, ptr %8, align 8
  store i32 %66, ptr %67, align 4
  ret i32 0
}

; Function Attrs: mustprogress uwtable
define internal noundef i32 @_ZN2cvL9normL1_8sEPKaPKhPiii(ptr noundef %0, ptr noundef %1, ptr noundef %2, i32 noundef %3, i32 noundef %4) #0 {
  %6 = alloca ptr, align 8
  %7 = alloca ptr, align 8
  %8 = alloca ptr, align 8
  %9 = alloca i32, align 4
  %10 = alloca i32, align 4
  store ptr %0, ptr %6, align 8
  store ptr %1, ptr %7, align 8
  store ptr %2, ptr %8, align 8
  store i32 %3, ptr %9, align 4
  store i32 %4, ptr %10, align 4
  %11 = load ptr, ptr %6, align 8
  %12 = load ptr, ptr %7, align 8
  %13 = load ptr, ptr %8, align 8
  %14 = load i32, ptr %9, align 4
  %15 = load i32, ptr %10, align 4
  %16 = call noundef i32 @_ZN2cv7normL1_IaiEEiPKT_PKhPT0_ii(ptr noundef %11, ptr noundef %12, ptr noundef %13, i32 noundef %14, i32 noundef %15)
  ret i32 %16
}